; Function Attrs: mustprogress nounwind uwtable
define hidden void @_ZN13ClassFieldMapC2Ev(ptr nocapture noundef nonnull writeonly align 8 dereferenceable(8) %0) unnamed_addr #0 align 2 {
  %2 = tail call noundef ptr @_ZN6AnyObjnwEm8MEMFLAGS(i64 noundef 24, i8 noundef zeroext 23) #14
  %3 = icmp eq ptr %2, null
  br i1 %3, label %9, label %4

4:                                                ; preds = %1
  %5 = tail call noundef ptr @_ZN27GrowableArrayCHeapAllocator8allocateEii8MEMFLAGS(i32 noundef 5, i32 noundef 8, i8 noundef zeroext 23) #14
  store i32 0, ptr %2, align 4
  %6 = getelementptr inbounds i8, ptr %2, i64 4
  store i32 5, ptr %6, align 4
  %7 = getelementptr inbounds i8, ptr %2, i64 8
  store ptr %5, ptr %7, align 8
  tail call void @llvm.memset.p0.i64(ptr noundef nonnull align 8 dereferenceable(40) %5, i8 0, i64 40, i1 false)
  %8 = getelementptr inbounds i8, ptr %2, i64 16
  store i64 47, ptr %8, align 8
  br label %9

9:                                                ; preds = %4, %1
  store ptr %2, ptr %0, align 8
  ret void
}